target datalayout = "e-m:e-p270:32:32-p271:32:32-p272:64:64-i64:64-i128:128-f80:128-n8:16:32:64-S128"
target triple = "x86_64-pc-linux-gnu"

; Function Attrs: mustprogress uwtable
define noundef i32 @_ZN6icu_776number4impl30CurrencySpacingEnabledModifier20applyCurrencySpacingERNS_22FormattedStringBuilderEiiiiRKNS_20DecimalFormatSymbolsER10UErrorCode(ptr noundef nonnull align 8 dereferenceable(136) %0, i32 noundef %1, i32 noundef %2, i32 noundef %3, i32 noundef %4, ptr noundef nonnull align 8 dereferenceable(2579) %5, ptr noundef nonnull align 4 dereferenceable(4) %6) #2 align 2 {
  %8 = alloca ptr, align 8
  %9 = alloca i32, align 4
  %10 = alloca i32, align 4
  %11 = alloca i32, align 4
  %12 = alloca i32, align 4
  %13 = alloca ptr, align 8
  %14 = alloca ptr, align 8
  %15 = alloca i32, align 4
  %16 = alloca i8, align 1
  %17 = alloca i8, align 1
  %18 = alloca i8, align 1
  store ptr %0, ptr %8, align 8, !tbaa !35
  store i32 %1, ptr %9, align 4, !tbaa !37
  store i32 %2, ptr %10, align 4, !tbaa !37
  store i32 %3, ptr %11, align 4, !tbaa !37
  store i32 %4, ptr %12, align 4, !tbaa !37
  store ptr %5, ptr %13, align 8, !tbaa !84
  store ptr %6, ptr %14, align 8, !tbaa !39
  call void @llvm.lifetime.start.p0(i64 4, ptr %15) #15
  store i32 0, ptr %15, align 4, !tbaa !37
  call void @llvm.lifetime.start.p0(i64 1, ptr %16) #15
  %19 = load i32, ptr %10, align 4, !tbaa !37
  %20 = icmp sgt i32 %19, 0
  %21 = zext i1 %20 to i8
  store i8 %21, ptr %16, align 1, !tbaa !61
  call void @llvm.lifetime.start.p0(i64 1, ptr %17) #15
  %22 = load i32, ptr %12, align 4, !tbaa !37
  %23 = icmp sgt i32 %22, 0
  %24 = zext i1 %23 to i8
  store i8 %24, ptr %17, align 1, !tbaa !61
  call void @llvm.lifetime.start.p0(i64 1, ptr %18) #15
  %25 = load i32, ptr %11, align 4, !tbaa !37
  %26 = load i32, ptr %9, align 4, !tbaa !37
  %27 = sub nsw i32 %25, %26
  %28 = load i32, ptr %10, align 4, !tbaa !37
  %29 = sub nsw i32 %27, %28
  %30 = icmp sgt i32 %29, 0
  %31 = zext i1 %30 to i8
  store i8 %31, ptr %18, align 1, !tbaa !61
  %32 = load i8, ptr %16, align 1, !tbaa !61, !range !52, !noundef !53
  %33 = trunc i8 %32 to i1
  br i1 %33, label %34, label %47

34:                                               ; preds = %7
  %35 = load i8, ptr %18, align 1, !tbaa !61, !range !52, !noundef !53
  %36 = trunc i8 %35 to i1
  br i1 %36, label %37, label %47

37:                                               ; preds = %34
  %38 = load ptr, ptr %8, align 8, !tbaa !35
  %39 = load i32, ptr %9, align 4, !tbaa !37
  %40 = load i32, ptr %10, align 4, !tbaa !37
  %41 = add nsw i32 %39, %40
  %42 = load ptr, ptr %13, align 8, !tbaa !84
  %43 = load ptr, ptr %14, align 8, !tbaa !39
  %44 = call noundef i32 @_ZN6icu_776number4impl30CurrencySpacingEnabledModifier25applyCurrencySpacingAffixERNS_22FormattedStringBuilderEiNS2_6EAffixERKNS_20DecimalFormatSymbolsER10UErrorCode(ptr noundef nonnull align 8 dereferenceable(136) %38, i32 noundef %41, i32 noundef 0, ptr noundef nonnull align 8 dereferenceable(2579) %42, ptr noundef nonnull align 4 dereferenceable(4) %43)
  %45 = load i32, ptr %15, align 4, !tbaa !37
  %46 = add nsw i32 %45, %44
  store i32 %46, ptr %15, align 4, !tbaa !37
  br label %47

47:                                               ; preds = %37, %34, %7
  %48 = load i8, ptr %17, align 1, !tbaa !61, !range !52, !noundef !53
  %49 = trunc i8 %48 to i1
  br i1 %49, label %50, label %63

50:                                               ; preds = %47
  %51 = load i8, ptr %18, align 1, !tbaa !61, !range !52, !noundef !53
  %52 = trunc i8 %51 to i1
  br i1 %52, label %53, label %63

53:                                               ; preds = %50
  %54 = load ptr, ptr %8, align 8, !tbaa !35
  %55 = load i32, ptr %11, align 4, !tbaa !37
  %56 = load i32, ptr %15, align 4, !tbaa !37
  %57 = add nsw i32 %55, %56
  %58 = load ptr, ptr %13, align 8, !tbaa !84
  %59 = load ptr, ptr %14, align 8, !tbaa !39
  %60 = call noundef i32 @_ZN6icu_776number4impl30CurrencySpacingEnabledModifier25applyCurrencySpacingAffixERNS_22FormattedStringBuilderEiNS2_6EAffixERKNS_20DecimalFormatSymbolsER10UErrorCode(ptr noundef nonnull align 8 dereferenceable(136) %54, i32 noundef %57, i32 noundef 1, ptr noundef nonnull align 8 dereferenceable(2579) %58, ptr noundef nonnull align 4 dereferenceable(4) %59)
  %61 = load i32, ptr %15, align 4, !tbaa !37
  %62 = add nsw i32 %61, %60
  store i32 %62, ptr %15, align 4, !tbaa !37
  br label %63

63:                                               ; preds = %53, %50, %47
  %64 = load i32, ptr %15, align 4, !tbaa !37
  call void @llvm.lifetime.end.p0(i64 1, ptr %18) #15
  call void @llvm.lifetime.end.p0(i64 1, ptr %17) #15
  call void @llvm.lifetime.end.p0(i64 1, ptr %16) #15
  call void @llvm.lifetime.end.p0(i64 4, ptr %15) #15
  ret i32 %64
}